(dp0
S'layout_type'
p1
S'stable'
p2
sS'layout_name'
p3
S'keyoard8'
p4
sS'letters'
p5
(lp6
(dp7
S'end_pos'
p8
(F555.0
F537.0
tp9
sS'start_pos'
p10
(F523.0
F509.0
tp11
sS'letter'
p12
S'Q'
p13
sa(dp14
g8
(F506.0
F461.0
tp15
sg10
(F487.0
F440.0
tp16
sg12
S'1'
p17
sa(dp18
g8
(F641.0
F460.0
tp19
sg10
(F622.0
F440.0
tp20
sg12
S'2'
p21
sa(dp22
g8
(F779.0
F457.0
tp23
sg10
(F761.0
F439.0
tp24
sg12
S'3'
p25
sa(dp26
g8
(F556.0
F626.0
tp27
sg10
(F528.0
F598.0
tp28
sg12
S'A'
p29
sa(dp30
g8
(F624.0
F717.0
tp31
sg10
(F602.0
F697.0
tp32
sg12
S'Z'
p33
sa(dp34
g8
(F700.0
F622.0
tp35
sg10
(F681.0
F599.0
tp36
sg12
S'S'
p37
sa(dp38
g8
(F703.0
F532.0
tp39
sg10
(F665.0
F509.0
tp40
sg12
S'W'
p41
sa(dp42
g8
(F832.0
F530.0
tp43
sg10
(F813.0
F509.0
tp44
sg12
S'E'
p45
sa(dp46
g8
(F848.0
F623.0
tp47
sg10
(F825.0
F598.0
tp48
sg12
S'D'
p49
sa(dp50
g8
(F779.0
F721.0
tp51
sg10
(F753.0
F694.0
tp52
sg12
S'X'
p53
sa(dp54
g8
(F990.0
F620.0
tp55
sg10
(F969.0
F594.0
tp56
sg12
S'F'
p57
sa(dp58
g8
(F973.0
F531.0
tp59
sg10
(F952.0
F508.0
tp60
sg12
S'R'
p61
sa(dp62
g8
(F915.0
F457.0
tp63
sg10
(F895.0
F438.0
tp64
sg12
S'4'
p65
sa(dp66
g8
(F1048.0
F455.0
tp67
sg10
(F1032.0
F437.0
tp68
sg12
S'5'
p69
sa(dp70
g8
(F1183.0
F455.0
tp71
sg10
(F1166.0
F435.0
tp72
sg12
S'6'
p73
sa(dp74
g8
(F1111.0
F530.0
tp75
sg10
(F1089.0
F508.0
tp76
sg12
S'T'
p77
sa(dp78
g8
(F1137.0
F621.0
tp79
sg10
(F1110.0
F595.0
tp80
sg12
S'G'
p81
sa(dp82
g8
(F927.0
F716.0
tp83
sg10
(F900.0
F694.0
tp84
sg12
S'C'
p85
sa(dp86
g8
(F1079.0
F719.0
tp87
sg10
(F1051.0
F691.0
tp88
sg12
S'V'
p89
sa(dp90
g8
(F1318.0
F456.0
tp91
sg10
(F1298.0
F436.0
tp92
sg12
S'7'
p93
sa(dp94
g8
(F1454.0
F455.0
tp95
sg10
(F1436.0
F435.0
tp96
sg12
S'8'
p97
sa(dp98
g8
(F1588.0
F453.0
tp99
sg10
(F1573.0
F438.0
tp100
sg12
S'9'
p101
sa(dp102
g8
(F1725.0
F455.0
tp103
sg10
(F1706.0
F436.0
tp104
sg12
S'0'
p105
sa(dp106
g8
(F1251.0
F527.0
tp107
sg10
(F1227.0
F505.0
tp108
sg12
S'Y'
p109
sa(dp110
g8
(F1279.0
F620.0
tp111
sg10
(F1253.0
F595.0
tp112
sg12
S'H'
p113
sa(dp114
g8
(F1228.0
F719.0
tp115
sg10
(F1204.0
F692.0
tp116
sg12
S'B'
p117
sa(dp118
g8
(F1391.0
F528.0
tp119
sg10
(F1364.0
F505.0
tp120
sg12
S'U'
p121
sa(dp122
g8
(F1522.0
F530.0
tp123
sg10
(F1510.0
F503.0
tp124
sg12
S'I'
p125
sa(dp126
g8
(F1671.0
F529.0
tp127
sg10
(F1641.0
F502.0
tp128
sg12
S'O'
p129
sa(dp130
g8
(F1808.0
F530.0
tp131
sg10
(F1784.0
F504.0
tp132
sg12
S'P'
p133
sa(dp134
g8
(F1416.0
F617.0
tp135
sg10
(F1399.0
F594.0
tp136
sg12
S'J'
p137
sa(dp138
g8
(F1377.0
F716.0
tp139
sg10
(F1347.0
F692.0
tp140
sg12
S'N'
p141
sa(dp142
g8
(F1568.0
F619.0
tp143
sg10
(F1544.0
F597.0
tp144
sg12
S'K'
p145
sa(dp146
g8
(F1714.0
F616.0
tp147
sg10
(F1691.0
F597.0
tp148
sg12
S'L'
p149
sa(dp150
g8
(F1527.0
F717.0
tp151
sg10
(F1493.0
F690.0
tp152
sg12
S'M'
p153
sasS'filepath'
p154
S'keyboards/images/keyboard7.jpg'
p155
s.