(dp0
S'layout_type'
p1
S'rotated'
p2
sS'layout_name'
p3
S'keyboard24'
p4
sS'letters'
p5
(lp6
(dp7
S'end_pos'
p8
(F641.0
F1189.0
tp9
sS'letter'
p10
S'0'
p11
sS'start_pos'
p12
(F606.0
F1161.0
tp13
sa(dp14
g8
(F801.0
F1082.0
tp15
sg10
S'P'
p16
sg12
(F764.0
F1054.0
tp17
sa(dp18
g8
(F976.0
F1197.0
tp19
sg10
S'L'
p20
sg12
(F931.0
F1171.0
tp21
sa(dp22
g8
(F979.0
F1386.0
tp23
sg10
S'K'
p24
sg12
(F939.0
F1352.0
tp25
sa(dp26
g8
(F804.0
F1269.0
tp27
sg10
S'O'
p28
sg12
(F767.0
F1225.0
tp29
sa(dp30
g8
(F648.0
F1365.0
tp31
sg10
S'9'
p32
sg12
(F614.0
F1339.0
tp33
sa(dp34
g8
(F809.0
F1434.0
tp35
sg10
S'I'
p36
sg12
(F773.0
F1419.0
tp37
sa(dp38
g8
(F1160.0
F1471.0
tp39
sg10
S'M'
p40
sg12
(F1119.0
F1422.0
tp41
sa(dp42
g8
(F1167.0
F1660.0
tp43
sg10
S'N'
p44
sg12
(F1127.0
F1618.0
tp45
sa(dp46
g8
(F985.0
F1565.0
tp47
sg10
S'J'
p48
sg12
(F943.0
F1540.0
tp49
sa(dp50
g8
(F813.0
F1626.0
tp51
sg10
S'U'
p52
sg12
(F778.0
F1593.0
tp53
sa(dp54
g8
(F990.0
F1758.0
tp55
sg10
S'H'
p56
sg12
(F952.0
F1721.0
tp57
sa(dp58
g8
(F1173.0
F1847.0
tp59
sg10
S'B'
p60
sg12
(F1136.0
F1818.0
tp61
sa(dp62
g8
(F649.0
F1541.0
tp63
sg10
S'8'
p64
sg12
(F621.0
F1515.0
tp65
sa(dp66
g8
(F654.0
F1721.0
tp67
sg10
S'7'
p68
sg12
(F622.0
F1689.0
tp69
sa(dp70
g8
(F817.0
F1809.0
tp71
sg10
S'Y'
p72
sg12
(F782.0
F1774.0
tp73
sa(dp74
g8
(F660.0
F1899.0
tp75
sg10
S'6'
p76
sg12
(F626.0
F1870.0
tp77
sa(dp78
g8
(F825.0
F1991.0
tp79
sg10
S'T'
p80
sg12
(F789.0
F1962.0
tp81
sa(dp82
g8
(F999.0
F1953.0
tp83
sg10
S'G'
p84
sg12
(F957.0
F1907.0
tp85
sa(dp86
g8
(F1179.0
F2047.0
tp87
sg10
S'V'
p88
sg12
(F1140.0
F2006.0
tp89
sa(dp90
g8
(F1192.0
F2247.0
tp91
sg10
S'C'
p92
sg12
(F1148.0
F2202.0
tp93
sa(dp94
g8
(F1002.0
F2133.0
tp95
sg10
S'F'
p96
sg12
(F962.0
F2104.0
tp97
sa(dp98
g8
(F834.0
F2179.0
tp99
sg10
S'R'
p100
sg12
(F794.0
F2147.0
tp101
sa(dp102
g8
(F665.0
F2078.0
tp103
sg10
S'5'
p104
sg12
(F632.0
F2053.0
tp105
sa(dp106
g8
(F667.0
F2261.0
tp107
sg10
S'4'
p108
sg12
(F640.0
F2235.0
tp109
sa(dp110
g8
(F675.0
F2447.0
tp111
sg10
S'3'
p112
sg12
(F642.0
F2420.0
tp113
sa(dp114
g8
(F838.0
F2367.0
tp115
sg10
S'E'
p116
sg12
(F801.0
F2335.0
tp117
sa(dp118
g8
(F1197.0
F2442.0
tp119
sg10
S'X'
p120
sg12
(F1157.0
F2407.0
tp121
sa(dp122
g8
(F1207.0
F2644.0
tp123
sg10
S'Z'
p124
sg12
(F1165.0
F2608.0
tp125
sa(dp126
g8
(F1020.0
F2528.0
tp127
sg10
S'S'
p128
sg12
(F976.0
F2497.0
tp129
sa(dp130
g8
(F1009.0
F2332.0
tp131
sg10
S'D'
p132
sg12
(F971.0
F2295.0
tp133
sa(dp134
g8
(F844.0
F2573.0
tp135
sg10
S'W'
p136
sg12
(F802.0
F2511.0
tp137
sa(dp138
g8
(F855.0
F2759.0
tp139
sg10
S'Q'
p140
sg12
(F809.0
F2708.0
tp141
sa(dp142
g8
(F1026.0
F2730.0
tp143
sg10
S'A'
p144
sg12
(F983.0
F2683.0
tp145
sa(dp146
g8
(F682.0
F2635.0
tp147
sg10
S'2'
p148
sg12
(F646.0
F2603.0
tp149
sa(dp150
g8
(F686.0
F2814.0
tp151
sg10
S'1'
p152
sg12
(F651.0
F2793.0
tp153
sasS'filepath'
p154
S'keyboards/layouts/keyboard24.layout'
p155
s.